target datalayout = "e-m:e-p270:32:32-p271:32:32-p272:64:64-i64:64-i128:128-f80:128-n8:16:32:64-S128"
target triple = "x86_64-pc-linux-gnu"

%struct.H5F_shared_t = type { ptr, ptr, ptr, i8, i32, i32, %struct.H5F_mtab_t, ptr, i8, i8, i64, i32, i32, i64, i64, ptr, ptr, %struct.H5AC_cache_config_t, %struct.H5AC_cache_image_config_t, i8, i8, ptr, i64, i32, i8, i64, i64, double, i64, i64, i64, i32, i32, i32, i8, i32, ptr, ptr, ptr, ptr, i8, i8, i8, i64, i64, ptr, ptr, i32, i64, i8, i32, i8, i64, i8, [13 x i32], [13 x i64], [13 x ptr], i8, i64, i64, [7 x i32], [7 x i32], %struct.H5F_blk_aggr_t, %struct.H5F_blk_aggr_t, i64, i64, %struct.H5F_meta_accum_t, i32, i32, [30 x ptr], %struct.H5F_object_flush_t, i8, ptr }
%struct.H5F_mtab_t = type { i32, i32, ptr }
%struct.H5AC_cache_config_t = type { i32, i8, i8, i8, [1025 x i8], i8, i8, i64, double, i64, i64, i64, i32, double, double, i8, i64, i32, double, double, i32, double, double, i8, i64, i32, i8, double, i64, i32 }
%struct.H5AC_cache_image_config_t = type { i32, i8, i8, i32 }
%struct.H5F_blk_aggr_t = type { i64, i64, i64, i64, i64 }
%struct.H5F_meta_accum_t = type { ptr, i64, i64, i64, i64, i64, i8 }
%struct.H5F_object_flush_t = type { ptr, ptr }
%struct.H5F_t = type { ptr, ptr, ptr, ptr, i32, ptr, i8, i8, ptr, i32 }

@.str = private unnamed_addr constant [99 x i8] c"generated/home/dtcxzyw/WorkSpace/Projects/compilers/llvm-opt-benchmark/bench/hdf5/hdf5/src/H5Fio.c\00", align 1
@H5E_IO_g = external global i64, align 8
@H5E_BADRANGE_g = external global i64, align 8
@.str.1 = private unnamed_addr constant [39 x i8] c"attempting I/O in temporary file space\00", align 1
@H5E_READERROR_g = external global i64, align 8
@.str.2 = private unnamed_addr constant [32 x i8] c"read through page buffer failed\00", align 1
@__func__.H5F_block_read = private unnamed_addr constant [15 x i8] c"H5F_block_read\00", align 1

; Function Attrs: nounwind uwtable
define i32 @H5F_block_read(ptr noundef %0, i32 noundef %1, i64 noundef %2, i64 noundef %3, ptr noundef %4) #0 {
  %6 = alloca ptr, align 8
  %7 = alloca i32, align 4
  %8 = alloca i64, align 8
  %9 = alloca i64, align 8
  %10 = alloca ptr, align 8
  %11 = alloca i32, align 4
  %12 = alloca i32, align 4
  %13 = alloca i8, align 1
  store ptr %0, ptr %6, align 8
  store i32 %1, ptr %7, align 4
  store i64 %2, ptr %8, align 8
  store i64 %3, ptr %9, align 8
  store ptr %4, ptr %10, align 8
  store i32 0, ptr %12, align 4
  store i8 0, ptr %13, align 1
  %14 = load ptr, ptr %6, align 8
  %15 = getelementptr inbounds %struct.H5F_t, ptr %14, i32 0, i32 2
  %16 = load ptr, ptr %15, align 8
  %17 = getelementptr inbounds %struct.H5F_shared_t, ptr %16, i32 0, i32 52
  %18 = load i64, ptr %17, align 8
  %19 = icmp ne i64 %18, -1
  br i1 %19, label %20, label %50

20:                                               ; preds = %5
  %21 = load i64, ptr %8, align 8
  %22 = load i64, ptr %9, align 8
  %23 = add i64 %21, %22
  %24 = icmp ne i64 %23, -1
  br i1 %24, label %25, label %50

25:                                               ; preds = %20
  %26 = load ptr, ptr %6, align 8
  %27 = getelementptr inbounds %struct.H5F_t, ptr %26, i32 0, i32 2
  %28 = load ptr, ptr %27, align 8
  %29 = getelementptr inbounds %struct.H5F_shared_t, ptr %28, i32 0, i32 52
  %30 = load i64, ptr %29, align 8
  %31 = load i64, ptr %8, align 8
  %32 = load i64, ptr %9, align 8
  %33 = add i64 %31, %32
  %34 = icmp ule i64 %30, %33
  br i1 %34, label %35, label %50

35:                                               ; preds = %25
  br label %36

36:                                               ; preds = %35
  br label %37

37:                                               ; preds = %36
  br label %38

38:                                               ; preds = %37
  %39 = load i64, ptr @H5E_IO_g, align 8
  %40 = load i64, ptr @H5E_BADRANGE_g, align 8
  %41 = call i32 (ptr, ptr, i32, i64, i64, ptr, ...) @H5E_printf_stack(ptr noundef @.str, ptr noundef @__func__.H5F_block_read, i32 noundef 131, i64 noundef %39, i64 noundef %40, ptr noundef @.str.1)
  br label %42

42:                                               ; preds = %38
  store i8 1, ptr %13, align 1
  %43 = load i8, ptr %13, align 1
  %44 = trunc i8 %43 to i1
  %45 = zext i1 %44 to i8
  store i8 %45, ptr %13, align 1
  br label %46

46:                                               ; preds = %42
  br label %47

47:                                               ; preds = %46
  store i32 -1, ptr %12, align 4
  br label %83

48:                                               ; No predecessors!
  br label %49

49:                                               ; preds = %48
  br label %50

50:                                               ; preds = %49, %25, %20, %5
  %51 = load i32, ptr %7, align 4
  %52 = icmp eq i32 %51, 4
  br i1 %52, label %53, label %54

53:                                               ; preds = %50
  br label %56

54:                                               ; preds = %50
  %55 = load i32, ptr %7, align 4
  br label %56

56:                                               ; preds = %54, %53
  %57 = phi i32 [ 3, %53 ], [ %55, %54 ]
  store i32 %57, ptr %11, align 4
  %58 = load ptr, ptr %6, align 8
  %59 = getelementptr inbounds %struct.H5F_t, ptr %58, i32 0, i32 2
  %60 = load ptr, ptr %59, align 8
  %61 = load i32, ptr %11, align 4
  %62 = load i64, ptr %8, align 8
  %63 = load i64, ptr %9, align 8
  %64 = load ptr, ptr %10, align 8
  %65 = call i32 @H5PB_read(ptr noundef %60, i32 noundef %61, i64 noundef %62, i64 noundef %63, ptr noundef %64)
  %66 = icmp slt i32 %65, 0
  br i1 %66, label %67, label %82

67:                                               ; preds = %56
  br label %68

68:                                               ; preds = %67
  br label %69

69:                                               ; preds = %68
  br label %70

70:                                               ; preds = %69
  %71 = load i64, ptr @H5E_IO_g, align 8
  %72 = load i64, ptr @H5E_READERROR_g, align 8
  %73 = call i32 (ptr, ptr, i32, i64, i64, ptr, ...) @H5E_printf_stack(ptr noundef @.str, ptr noundef @__func__.H5F_block_read, i32 noundef 138, i64 noundef %71, i64 noundef %72, ptr noundef @.str.2)
  br label %74

74:                                               ; preds = %70
  store i8 1, ptr %13, align 1
  %75 = load i8, ptr %13, align 1
  %76 = trunc i8 %75 to i1
  %77 = zext i1 %76 to i8
  store i8 %77, ptr %13, align 1
  br label %78

78:                                               ; preds = %74
  br label %79

79:                                               ; preds = %78
  store i32 -1, ptr %12, align 4
  br label %83

80:                                               ; No predecessors!
  br label %81

81:                                               ; preds = %80
  br label %82

82:                                               ; preds = %81, %56
  br label %83

83:                                               ; preds = %82, %79, %47
  %84 = load i32, ptr %12, align 4
  ret i32 %84
}