; Function Attrs: nounwind uwtable
define range(i32 -1, 1) i32 @H5F_block_read(ptr nocapture noundef readonly %0, i32 noundef %1, i64 noundef %2, i64 noundef %3, ptr noundef %4) local_unnamed_addr #0 {
  %6 = getelementptr inbounds i8, ptr %0, i64 16
  %7 = load ptr, ptr %6, align 8
  %8 = getelementptr inbounds i8, ptr %7, i64 1552
  %9 = load i64, ptr %8, align 8
  %.not = icmp eq i64 %9, -1
  br i1 %.not, label %16, label %10

10:                                               ; preds = %5
  %11 = add i64 %3, %2
  %.not17 = icmp eq i64 %11, -1
  %.not18 = icmp ugt i64 %9, %11
  %or.cond = or i1 %.not17, %.not18
  br i1 %or.cond, label %16, label %12

12:                                               ; preds = %10
  %13 = load i64, ptr @H5E_IO_g, align 8
  %14 = load i64, ptr @H5E_BADRANGE_g, align 8
  %15 = tail call i32 (ptr, ptr, i32, i64, i64, ptr, ...) @H5E_printf_stack(ptr noundef nonnull @.str, ptr noundef nonnull @__func__.H5F_block_read, i32 noundef 131, i64 noundef %13, i64 noundef %14, ptr noundef nonnull @.str.1) #2
  br label %25

16:                                               ; preds = %10, %5
  %17 = icmp eq i32 %1, 4
  %18 = select i1 %17, i32 3, i32 %1
  %19 = tail call i32 @H5PB_read(ptr noundef nonnull %7, i32 noundef %18, i64 noundef %2, i64 noundef %3, ptr noundef %4) #2
  %20 = icmp slt i32 %19, 0
  br i1 %20, label %21, label %25

21:                                               ; preds = %16
  %22 = load i64, ptr @H5E_IO_g, align 8
  %23 = load i64, ptr @H5E_READERROR_g, align 8
  %24 = tail call i32 (ptr, ptr, i32, i64, i64, ptr, ...) @H5E_printf_stack(ptr noundef nonnull @.str, ptr noundef nonnull @__func__.H5F_block_read, i32 noundef 138, i64 noundef %22, i64 noundef %23, ptr noundef nonnull @.str.2) #2
  br label %25

25:                                               ; preds = %16, %21, %12
  %.0 = phi i32 [ -1, %12 ], [ -1, %21 ], [ 0, %16 ]
  ret i32 %.0
}